target datalayout = "e-m:e-p270:32:32-p271:32:32-p272:64:64-i64:64-i128:128-f80:128-n8:16:32:64-S128"
target triple = "x86_64-pc-linux-gnu"

%struct.Abc_Frame_t_ = type { ptr, ptr, ptr, ptr, ptr, ptr, ptr, ptr, ptr, ptr, i32, i32, i32, i32, i32, ptr, float, float, i32, i32, ptr, ptr, ptr, double, double, ptr, ptr, ptr, ptr, ptr, ptr, ptr, ptr, ptr, ptr, ptr, ptr, float, ptr, i32, ptr, ptr, ptr, ptr, ptr, i32, i32, i32, i32, i32, i32, ptr, ptr, ptr, ptr, ptr, ptr, i32, i32, ptr, ptr, ptr, ptr, ptr, ptr, ptr, ptr, ptr, ptr, ptr, ptr, ptr, ptr, ptr, ptr, ptr, ptr, ptr, ptr, ptr, ptr, ptr, ptr, ptr, ptr, ptr, ptr, ptr, ptr }

@.str = private unnamed_addr constant [31 x i8] c"ABC framework is not started.\0A\00", align 1
@.str.2 = private unnamed_addr constant [33 x i8] c"There is no CBA design present.\0A\00", align 1
@.str.3 = private unnamed_addr constant [31 x i8] c"Converting to Ptr has failed.\0A\00", align 1

; Function Attrs: inlinehint nounwind uwtable
define internal ptr @Bac_AbcGetMan(ptr noundef %0) #3 {
  %2 = alloca ptr, align 8
  store ptr %0, ptr %2, align 8, !tbaa !10
  %3 = load ptr, ptr %2, align 8, !tbaa !10
  %4 = getelementptr inbounds nuw %struct.Abc_Frame_t_, ptr %3, i32 0, i32 74
  %5 = load ptr, ptr %4, align 8, !tbaa !12
  ret ptr %5
}

; Function Attrs: nounwind uwtable
define ptr @Abc_FrameExportPtr() #0 {
  %1 = alloca ptr, align 8
  %2 = alloca ptr, align 8
  %3 = alloca ptr, align 8
  %4 = alloca i32, align 4
  call void @llvm.lifetime.start.p0(i64 8, ptr %2) #10
  call void @llvm.lifetime.start.p0(i64 8, ptr %3) #10
  %5 = call ptr (...) @Abc_FrameGetGlobalFrame()
  %6 = icmp eq ptr %5, null
  br i1 %6, label %7, label %9

7:                                                ; preds = %0
  %8 = call i32 (ptr, ...) @printf(ptr noundef @.str)
  store ptr null, ptr %1, align 8
  store i32 1, ptr %4, align 4
  br label %25

9:                                                ; preds = %0
  %10 = call ptr (...) @Abc_FrameGetGlobalFrame()
  %11 = call ptr @Bac_AbcGetMan(ptr noundef %10)
  store ptr %11, ptr %3, align 8, !tbaa !8
  %12 = load ptr, ptr %3, align 8, !tbaa !8
  %13 = icmp eq ptr %12, null
  br i1 %13, label %14, label %16

14:                                               ; preds = %9
  %15 = call i32 (ptr, ...) @printf(ptr noundef @.str.2)
  br label %16

16:                                               ; preds = %14, %9
  %17 = load ptr, ptr %3, align 8, !tbaa !8
  %18 = call ptr @Bac_PtrDeriveFromCba(ptr noundef %17)
  store ptr %18, ptr %2, align 8, !tbaa !3
  %19 = load ptr, ptr %2, align 8, !tbaa !3
  %20 = icmp eq ptr %19, null
  br i1 %20, label %21, label %23

21:                                               ; preds = %16
  %22 = call i32 (ptr, ...) @printf(ptr noundef @.str.3)
  br label %23

23:                                               ; preds = %21, %16
  %24 = load ptr, ptr %2, align 8, !tbaa !3
  store ptr %24, ptr %1, align 8
  store i32 1, ptr %4, align 4
  br label %25

25:                                               ; preds = %23, %7
  call void @llvm.lifetime.end.p0(i64 8, ptr %3) #10
  call void @llvm.lifetime.end.p0(i64 8, ptr %2) #10
  %26 = load ptr, ptr %1, align 8
  ret ptr %26
}