; Function Attrs: nounwind uwtable
define ptr @Abc_FrameExportPtr() local_unnamed_addr #0 {
  %1 = tail call ptr (...) @Abc_FrameGetGlobalFrame() #14
  %2 = icmp eq ptr %1, null
  br i1 %2, label %.sink.split, label %3

3:                                                ; preds = %0
  %4 = tail call ptr (...) @Abc_FrameGetGlobalFrame() #14
  %5 = getelementptr i8, ptr %4, i64 528
  %.val = load ptr, ptr %5, align 8, !tbaa !3
  %6 = icmp eq ptr %.val, null
  br i1 %6, label %7, label %8

7:                                                ; preds = %3
  %puts = tail call i32 @puts(ptr nonnull dereferenceable(1) @str.2)
  br label %8

8:                                                ; preds = %7, %3
  %9 = tail call ptr @Bac_PtrDeriveFromCba(ptr noundef %.val) #14
  %10 = icmp eq ptr %9, null
  br i1 %10, label %.sink.split, label %11

.sink.split:                                      ; preds = %8, %0
  %str.3.sink = phi ptr [ @str.4, %0 ], [ @str.8, %8 ]
  %puts5 = tail call i32 @puts(ptr nonnull dereferenceable(1) %str.3.sink)
  br label %11

11:                                               ; preds = %.sink.split, %8
  %.0 = phi ptr [ %9, %8 ], [ null, %.sink.split ]
  ret ptr %.0
}